Certificate:
    Data:
        Version: 1 (0x0)
        Serial Number:
            68:20:bd:74:37:c8:00:25:6b:dd:2b:36:c4:32:c2:6d:2c:eb:7a:a6
        Signature Algorithm: sha256WithRSAEncryption
        Issuer: O = lamda, CN = test
        Validity
            Not Before: Jan  1 00:00:01 2020 GMT
            Not After : Dec 29 00:00:01 2029 GMT
        Subject: O = lamda, CN = test
        Subject Public Key Info:
            Public Key Algorithm: rsaEncryption
                RSA Public-Key: (2048 bit)
                Modulus:
                    00:e8:f4:8c:71:44:62:a6:11:19:7e:41:95:7f:cf:
                    29:6c:43:80:bb:93:ee:36:fb:24:d1:fa:36:25:9c:
                    c6:17:00:1e:82:91:7e:cd:56:21:0f:e9:f0:ff:06:
                    d0:19:22:07:6a:dd:5a:52:53:ca:80:70:8d:bc:bd:
                    db:dc:df:e2:77:28:03:bc:5f:e7:e1:b2:38:e0:0f:
                    fa:f5:0a:80:0c:db:e7:65:63:b1:4c:d5:fa:41:2b:
                    e5:cc:c2:bd:dd:0a:80:38:b2:00:53:fa:bf:5e:f9:
                    34:46:d7:3e:e0:64:65:8d:8c:f1:66:0c:3b:dd:39:
                    d6:70:ff:88:4a:29:2a:82:10:ce:eb:7f:59:d3:f7:
                    ab:eb:d9:7e:8b:34:33:8b:e0:38:58:5c:de:0b:95:
                    9f:42:8e:fb:95:bd:7e:a4:63:58:3b:5a:d1:2c:56:
                    3f:42:91:79:fa:17:75:bb:4d:79:87:7c:97:4d:95:
                    23:50:6f:fe:17:9f:fa:81:ba:48:cb:46:7d:32:29:
                    67:a8:d9:2b:75:f3:c4:64:3b:76:24:1e:41:13:81:
                    cb:64:da:2e:57:04:d1:99:de:9c:f0:18:72:03:52:
                    24:6f:9b:c8:d2:fd:ef:b3:67:9e:d9:a3:e2:e0:a3:
                    84:b2:7f:5e:8d:18:ae:d0:d6:21:d7:f4:ee:79:a3:
                    85:79
                Exponent: 65537 (0x10001)
    Signature Algorithm: sha256WithRSAEncryption
         ca:71:90:4d:bd:3d:5d:ea:4b:53:cb:a9:1b:d7:bf:c7:96:88:
         c8:2c:ea:26:29:c7:6f:a5:f3:45:dc:86:bd:7d:e9:20:a9:d8:
         ef:31:12:37:03:50:5e:73:58:02:17:fd:f8:09:46:04:ee:3c:
         5b:ab:9c:01:58:a9:1c:09:67:85:5a:be:c7:07:5d:4b:5d:2e:
         40:5f:2b:f0:1f:aa:17:f4:aa:1e:0d:d9:bf:4c:e8:46:f7:56:
         e5:a8:72:e6:de:73:cd:c3:c2:02:c4:1f:aa:93:69:1b:f1:16:
         9d:0a:7a:22:47:12:03:b5:21:28:4d:82:12:cf:ee:82:77:09:
         99:9c:ae:ff:55:cb:3d:66:82:8f:ae:f7:64:19:7f:81:8b:b3:
         b6:fb:70:20:e3:52:69:ea:ea:9b:5a:3f:5d:54:88:05:a4:98:
         43:ef:fa:bf:21:df:6b:85:44:98:49:5b:21:0f:4a:af:1c:16:
         ec:95:b1:18:ba:fc:08:9c:17:79:a4:d9:09:9b:e8:47:47:37:
         0a:05:be:9f:96:a3:2c:f6:21:19:25:0b:65:34:15:77:f8:09:
         4d:df:46:6c:0b:2d:d4:27:fa:d7:dc:49:a1:b8:68:d3:4b:68:
         45:f4:60:f5:44:92:1a:01:4b:6f:bd:e0:5b:31:54:98:e7:96:
         63:3d:08:ee
-----BEGIN CERTIFICATE-----
MIICxTCCAa0CFGggvXQ3yAAla90rNsQywm0s63qmMA0GCSqGSIb3DQEBCwUAMB8x
DjAMBgNVBAoMBWxhbWRhMQ0wCwYDVQQDDAR0ZXN0MB4XDTIwMDEwMTAwMDAwMVoX
DTI5MTIyOTAwMDAwMVowHzEOMAwGA1UECgwFbGFtZGExDTALBgNVBAMMBHRlc3Qw
ggEiMA0GCSqGSIb3DQEBAQUAA4IBDwAwggEKAoIBAQDo9IxxRGKmERl+QZV/zyls
Q4C7k+42+yTR+jYlnMYXAB6CkX7NViEP6fD/BtAZIgdq3VpSU8qAcI28vdvc3+J3
KAO8X+fhsjjgD/r1CoAM2+dlY7FM1fpBK+XMwr3dCoA4sgBT+r9e+TRG1z7gZGWN
jPFmDDvdOdZw/4hKKSqCEM7rf1nT96vr2X6LNDOL4DhYXN4LlZ9CjvuVvX6kY1g7
WtEsVj9CkXn6F3W7TXmHfJdNlSNQb/4Xn/qBukjLRn0yKWeo2St188RkO3YkHkET
gctk2i5XBNGZ3pzwGHIDUiRvm8jS/e+zZ57Zo+Lgo4Syf16NGK7Q1iHX9O55o4V5
AgMBAAEwDQYJKoZIhvcNAQELBQADggEBAMpxkE29PV3qS1PLqRvXv8eWiMgs6iYp
x2+l80Xchr196SCp2O8xEjcDUF5zWAIX/fgJRgTuPFurnAFYqRwJZ4VavscHXUtd
LkBfK/Afqhf0qh4N2b9M6Eb3VuWocubec83DwgLEH6qTaRvxFp0KeiJHEgO1IShN
ghLP7oJ3CZmcrv9Vyz1mgo+u92QZf4GLs7b7cCDjUmnq6ptaP11UiAWkmEPv+r8h
32uFRJhJWyEPSq8cFuyVsRi6/AicF3mk2Qmb6EdHNwoFvp+Woyz2IRklC2U0FXf4
CU3fRmwLLdQn+tfcSaG4aNNLaEX0YPVEkhoBS2+94FsxVJjnlmM9CO4=
-----END CERTIFICATE-----
-----BEGIN RSA PRIVATE KEY-----
MIIEpAIBAAKCAQEA6PSMcURiphEZfkGVf88pbEOAu5PuNvsk0fo2JZzGFwAegpF+
zVYhD+nw/wbQGSIHat1aUlPKgHCNvL3b3N/idygDvF/n4bI44A/69QqADNvnZWOx
TNX6QSvlzMK93QqAOLIAU/q/Xvk0Rtc+4GRljYzxZgw73TnWcP+ISikqghDO639Z
0/er69l+izQzi+A4WFzeC5WfQo77lb1+pGNYO1rRLFY/QpF5+hd1u015h3yXTZUj
UG/+F5/6gbpIy0Z9MilnqNkrdfPEZDt2JB5BE4HLZNouVwTRmd6c8BhyA1Ikb5vI
0v3vs2ee2aPi4KOEsn9ejRiu0NYh1/TueaOFeQIDAQABAoIBAQDLare0NF3b2zSi
ngw4daIbKnqf0RYDJpxJSq67e0EyVmVN6FSMYvgt2D8bwkw2lhNaCn3TQ92g+Cec
N0Fkho9PMz7H4AswdprZdLrT/F5CXEebrkjk6jhDblyUxzxZZtD+MNi+fEddXEh8
z3nVIXXX+8nTLT2c+OM6+rd84qN+vBn3Z37o9Y50bL7dJZr5dANi94lHG1ymK4M9
7w+bdiAmj4jun+KIuZNpjSsfPSS7JMzXGZotumb8rzhEARcjFEyczj2s6pGj76mc
A7cWy3na2DN1laxghbArbV39BDyGeJSq57O1CTsRm1IxNNBAqKJbusgoBUJdt4zz
DAQ4tTBxAoGBAPt48M67eisvahRZ3PGj9QpU3XAe3hDRfQYb7CaBG9WV11hG7DSt
km6u+gbNaWUr3TK1sE3sY6dJdcabkHbKmQlLxcNHO8+CIR6qVFNvU5A5s8bXjYon
6KJaBIn82hqtydlHL9wF32woDwBau9B+/I2sUJBdHX5ke70ZVnZMKWJ9AoGBAO0m
QrxIhOnZErcohYsWE01wgZkQOoRESmJ6Pcpy9gGpW43EtJgy1xP5ykq7qYpjOsJV
itBWvwNQK5XSMmnCCM5A5DlHNQA8e66JKLu1RJRYQ28/j1Ax39bwc2qRtpIVskIP
r7nNENe2WhCfoSg+0Xiim8c8k5QmLvsFkm0CPoOtAoGAettBOp7ZNtP5TWwBx4RE
qQGBFc/eyfSu0hc+LimRga2tAZHUwH+0NKMDv+MHBMiDTsz5D3jXztjS028ZCxA7
6BC+04Kvs9dtet/YRtLyzlmCfTi+C6snunmkEg4YOESDgsWGmkW8O8juW0v4ygng
NQ7kZUM4r5FD6sTAOxdGeLkCgYBQYQh7ksTiEf5C8EwbMVdHhxuWCqcaz566tB4f
cUmqlIGAkqx3bbvyfFaxb9vuGOYAmkfbh5tkfxbWyBDoQakEZ4AzXcw8EUQGi1yw
Cqd89FGe8lcb4luxGXy1IUBVUV9C/tgbzMKpqpfqTICuCGStU8gjBogqzapc0K2p
nvobXQKBgQCxT2NDwlZaV/r3DWbCifHn7YIlW6uSYF+OKE0cZQHnxC5vVQeDi4XO
+LIPaxQb2yXSVXD4hojeMpcQ98eMUbQJp8HZYErny+003XWnrZxbvO2ZsCeP4vgL
HTtG7CVRlw/kgfqtSGimgH0+/IeqKqG+Zk2M+RnwbNiyvnKyo8X0fw==
-----END RSA PRIVATE KEY-----
a1fd89e85343f347b70c4195292791ea
